; ModuleID = '46/3437.c'
source_filename = "46/3437.c"
target datalayout = "e-m:e-p270:32:32-p271:32:32-p272:64:64-i64:64-f80:128-n8:16:32:64-S128"
target triple = "x86_64-pc-linux-gnu"

@.str = private unnamed_addr constant [5 x i8] c"%d%d\00", align 1
@.str.1 = private unnamed_addr constant [3 x i8] c"%d\00", align 1
@.str.2 = private unnamed_addr constant [4 x i8] c"%d\0A\00", align 1

; Function Attrs: noinline nounwind uwtable
define dso_local i32 @main() #0 {
  %1 = alloca i32, align 4
  %2 = alloca [155 x [155 x i32]], align 16
  %3 = alloca i32, align 4
  %4 = alloca i32, align 4
  %5 = alloca i32, align 4
  %6 = alloca i32, align 4
  %7 = alloca i32, align 4
  %8 = alloca i32, align 4
  %9 = alloca i32, align 4
  %10 = alloca i32, align 4
  %11 = alloca i32, align 4
  store i32 0, i32* %1, align 4
  store i32 0, i32* %7, align 4
  %12 = call i32 (i8*, ...) @__isoc99_scanf(i8* getelementptr inbounds ([5 x i8], [5 x i8]* @.str, i64 0, i64 0), i32* %11, i32* %10)
  store i32 0, i32* %3, align 4
  br label %13

13:                                               ; preds = %34, %0
  %14 = load i32, i32* %3, align 4
  %15 = load i32, i32* %11, align 4
  %16 = icmp slt i32 %14, %15
  br i1 %16, label %17, label %37

17:                                               ; preds = %13
  store i32 0, i32* %4, align 4
  br label %18

18:                                               ; preds = %30, %17
  %19 = load i32, i32* %4, align 4
  %20 = load i32, i32* %10, align 4
  %21 = icmp slt i32 %19, %20
  br i1 %21, label %22, label %33

22:                                               ; preds = %18
  %23 = load i32, i32* %3, align 4
  %24 = sext i32 %23 to i64
  %25 = getelementptr inbounds [155 x [155 x i32]], [155 x [155 x i32]]* %2, i64 0, i64 %24
  %26 = load i32, i32* %4, align 4
  %27 = sext i32 %26 to i64
  %28 = getelementptr inbounds [155 x i32], [155 x i32]* %25, i64 0, i64 %27
  %29 = call i32 (i8*, ...) @__isoc99_scanf(i8* getelementptr inbounds ([3 x i8], [3 x i8]* @.str.1, i64 0, i64 0), i32* %28)
  br label %30

30:                                               ; preds = %22
  %31 = load i32, i32* %4, align 4
  %32 = add nsw i32 %31, 1
  store i32 %32, i32* %4, align 4
  br label %18

33:                                               ; preds = %18
  br label %34

34:                                               ; preds = %33
  %35 = load i32, i32* %3, align 4
  %36 = add nsw i32 %35, 1
  store i32 %36, i32* %3, align 4
  br label %13

37:                                               ; preds = %13
  store i32 0, i32* %5, align 4
  store i32 0, i32* %6, align 4
  %38 = load i32, i32* %10, align 4
  store i32 %38, i32* %8, align 4
  %39 = load i32, i32* %11, align 4
  store i32 %39, i32* %9, align 4
  br label %40

40:                                               ; preds = %37, %187
  %41 = load i32, i32* %5, align 4
  store i32 %41, i32* %3, align 4
  %42 = load i32, i32* %5, align 4
  store i32 %42, i32* %4, align 4
  br label %43

43:                                               ; preds = %68, %40
  %44 = load i32, i32* %4, align 4
  %45 = load i32, i32* %5, align 4
  %46 = load i32, i32* %8, align 4
  %47 = add nsw i32 %45, %46
  %48 = sub nsw i32 %47, 1
  %49 = icmp sle i32 %44, %48
  br i1 %49, label %50, label %71

50:                                               ; preds = %43
  %51 = load i32, i32* %7, align 4
  %52 = load i32, i32* %10, align 4
  %53 = load i32, i32* %11, align 4
  %54 = mul nsw i32 %52, %53
  %55 = icmp sge i32 %51, %54
  br i1 %55, label %56, label %57

56:                                               ; preds = %50
  br label %71

57:                                               ; preds = %50
  %58 = load i32, i32* %3, align 4
  %59 = sext i32 %58 to i64
  %60 = getelementptr inbounds [155 x [155 x i32]], [155 x [155 x i32]]* %2, i64 0, i64 %59
  %61 = load i32, i32* %4, align 4
  %62 = sext i32 %61 to i64
  %63 = getelementptr inbounds [155 x i32], [155 x i32]* %60, i64 0, i64 %62
  %64 = load i32, i32* %63, align 4
  %65 = call i32 (i8*, ...) @printf(i8* getelementptr inbounds ([4 x i8], [4 x i8]* @.str.2, i64 0, i64 0), i32 %64)
  %66 = load i32, i32* %7, align 4
  %67 = add nsw i32 %66, 1
  store i32 %67, i32* %7, align 4
  br label %68

68:                                               ; preds = %57
  %69 = load i32, i32* %4, align 4
  %70 = add nsw i32 %69, 1
  store i32 %70, i32* %4, align 4
  br label %43

71:                                               ; preds = %56, %43
  %72 = load i32, i32* %5, align 4
  %73 = load i32, i32* %8, align 4
  %74 = add nsw i32 %72, %73
  %75 = sub nsw i32 %74, 1
  store i32 %75, i32* %4, align 4
  %76 = load i32, i32* %6, align 4
  %77 = add nsw i32 %76, 1
  store i32 %77, i32* %3, align 4
  br label %78

78:                                               ; preds = %103, %71
  %79 = load i32, i32* %3, align 4
  %80 = load i32, i32* %6, align 4
  %81 = load i32, i32* %9, align 4
  %82 = add nsw i32 %80, %81
  %83 = sub nsw i32 %82, 2
  %84 = icmp sle i32 %79, %83
  br i1 %84, label %85, label %106

85:                                               ; preds = %78
  %86 = load i32, i32* %7, align 4
  %87 = load i32, i32* %10, align 4
  %88 = load i32, i32* %11, align 4
  %89 = mul nsw i32 %87, %88
  %90 = icmp sge i32 %86, %89
  br i1 %90, label %91, label %92

91:                                               ; preds = %85
  br label %106

92:                                               ; preds = %85
  %93 = load i32, i32* %3, align 4
  %94 = sext i32 %93 to i64
  %95 = getelementptr inbounds [155 x [155 x i32]], [155 x [155 x i32]]* %2, i64 0, i64 %94
  %96 = load i32, i32* %4, align 4
  %97 = sext i32 %96 to i64
  %98 = getelementptr inbounds [155 x i32], [155 x i32]* %95, i64 0, i64 %97
  %99 = load i32, i32* %98, align 4
  %100 = call i32 (i8*, ...) @printf(i8* getelementptr inbounds ([4 x i8], [4 x i8]* @.str.2, i64 0, i64 0), i32 %99)
  %101 = load i32, i32* %7, align 4
  %102 = add nsw i32 %101, 1
  store i32 %102, i32* %7, align 4
  br label %103

103:                                              ; preds = %92
  %104 = load i32, i32* %3, align 4
  %105 = add nsw i32 %104, 1
  store i32 %105, i32* %3, align 4
  br label %78

106:                                              ; preds = %91, %78
  %107 = load i32, i32* %6, align 4
  %108 = load i32, i32* %9, align 4
  %109 = add nsw i32 %107, %108
  %110 = sub nsw i32 %109, 1
  store i32 %110, i32* %3, align 4
  %111 = load i32, i32* %5, align 4
  %112 = load i32, i32* %8, align 4
  %113 = add nsw i32 %111, %112
  %114 = sub nsw i32 %113, 1
  store i32 %114, i32* %4, align 4
  br label %115

115:                                              ; preds = %137, %106
  %116 = load i32, i32* %4, align 4
  %117 = load i32, i32* %5, align 4
  %118 = icmp sge i32 %116, %117
  br i1 %118, label %119, label %140

119:                                              ; preds = %115
  %120 = load i32, i32* %7, align 4
  %121 = load i32, i32* %10, align 4
  %122 = load i32, i32* %11, align 4
  %123 = mul nsw i32 %121, %122
  %124 = icmp sge i32 %120, %123
  br i1 %124, label %125, label %126

125:                                              ; preds = %119
  br label %140

126:                                              ; preds = %119
  %127 = load i32, i32* %3, align 4
  %128 = sext i32 %127 to i64
  %129 = getelementptr inbounds [155 x [155 x i32]], [155 x [155 x i32]]* %2, i64 0, i64 %128
  %130 = load i32, i32* %4, align 4
  %131 = sext i32 %130 to i64
  %132 = getelementptr inbounds [155 x i32], [155 x i32]* %129, i64 0, i64 %131
  %133 = load i32, i32* %132, align 4
  %134 = call i32 (i8*, ...) @printf(i8* getelementptr inbounds ([4 x i8], [4 x i8]* @.str.2, i64 0, i64 0), i32 %133)
  %135 = load i32, i32* %7, align 4
  %136 = add nsw i32 %135, 1
  store i32 %136, i32* %7, align 4
  br label %137

137:                                              ; preds = %126
  %138 = load i32, i32* %4, align 4
  %139 = add nsw i32 %138, -1
  store i32 %139, i32* %4, align 4
  br label %115

140:                                              ; preds = %125, %115
  %141 = load i32, i32* %5, align 4
  store i32 %141, i32* %4, align 4
  %142 = load i32, i32* %6, align 4
  %143 = load i32, i32* %9, align 4
  %144 = add nsw i32 %142, %143
  %145 = sub nsw i32 %144, 2
  store i32 %145, i32* %3, align 4
  br label %146

146:                                              ; preds = %169, %140
  %147 = load i32, i32* %3, align 4
  %148 = load i32, i32* %6, align 4
  %149 = add nsw i32 %148, 1
  %150 = icmp sge i32 %147, %149
  br i1 %150, label %151, label %172

151:                                              ; preds = %146
  %152 = load i32, i32* %7, align 4
  %153 = load i32, i32* %10, align 4
  %154 = load i32, i32* %11, align 4
  %155 = mul nsw i32 %153, %154
  %156 = icmp sge i32 %152, %155
  br i1 %156, label %157, label %158

157:                                              ; preds = %151
  br label %172

158:                                              ; preds = %151
  %159 = load i32, i32* %3, align 4
  %160 = sext i32 %159 to i64
  %161 = getelementptr inbounds [155 x [155 x i32]], [155 x [155 x i32]]* %2, i64 0, i64 %160
  %162 = load i32, i32* %4, align 4
  %163 = sext i32 %162 to i64
  %164 = getelementptr inbounds [155 x i32], [155 x i32]* %161, i64 0, i64 %163
  %165 = load i32, i32* %164, align 4
  %166 = call i32 (i8*, ...) @printf(i8* getelementptr inbounds ([4 x i8], [4 x i8]* @.str.2, i64 0, i64 0), i32 %165)
  %167 = load i32, i32* %7, align 4
  %168 = add nsw i32 %167, 1
  store i32 %168, i32* %7, align 4
  br label %169

169:                                              ; preds = %158
  %170 = load i32, i32* %3, align 4
  %171 = add nsw i32 %170, -1
  store i32 %171, i32* %3, align 4
  br label %146

172:                                              ; preds = %157, %146
  %173 = load i32, i32* %8, align 4
  %174 = sub nsw i32 %173, 2
  store i32 %174, i32* %8, align 4
  %175 = load i32, i32* %9, align 4
  %176 = sub nsw i32 %175, 2
  store i32 %176, i32* %9, align 4
  %177 = load i32, i32* %5, align 4
  %178 = add nsw i32 %177, 1
  store i32 %178, i32* %5, align 4
  %179 = load i32, i32* %6, align 4
  %180 = add nsw i32 %179, 1
  store i32 %180, i32* %6, align 4
  %181 = load i32, i32* %7, align 4
  %182 = load i32, i32* %10, align 4
  %183 = load i32, i32* %11, align 4
  %184 = mul nsw i32 %182, %183
  %185 = icmp sge i32 %181, %184
  br i1 %185, label %186, label %187

186:                                              ; preds = %172
  br label %188

187:                                              ; preds = %172
  br label %40

188:                                              ; preds = %186
  ret i32 0
}

declare dso_local i32 @__isoc99_scanf(i8*, ...) #1

declare dso_local i32 @printf(i8*, ...) #1


!llvm.module.flags = !{!0}
!llvm.ident = !{!1}

!0 = !{i32 1, !"wchar_size", i32 4}
!1 = !{!"clang version 10.0.0-4ubuntu1 "}
